target datalayout = "e-m:e-p270:32:32-p271:32:32-p272:64:64-i64:64-i128:128-f80:128-n8:16:32:64-S128"
target triple = "x86_64-unknown-linux-gnu"

%"class.std::__cxx11::basic_string" = type { %"struct.std::__cxx11::basic_string<char>::_Alloc_hider", i64, %union.anon.13 }
%"struct.std::__cxx11::basic_string<char>::_Alloc_hider" = type { ptr }
%union.anon.13 = type { i64, [8 x i8] }
%"class.pbrt::Camera" = type { %"class.pbrt::TaggedPointer" }
%"class.pbrt::TaggedPointer" = type { i64 }
%"class.pbrt::Sampler" = type { %"class.pbrt::TaggedPointer.8" }
%"class.pbrt::TaggedPointer.8" = type { i64 }
%"class.pbrt::Primitive" = type { %"class.pbrt::TaggedPointer.9" }
%"class.pbrt::TaggedPointer.9" = type { i64 }
%"class.std::vector" = type { %"struct.std::_Vector_base" }
%"struct.std::_Vector_base" = type { %"struct.std::_Vector_base<pbrt::Light, std::allocator<pbrt::Light>>::_Vector_impl" }
%"struct.std::_Vector_base<pbrt::Light, std::allocator<pbrt::Light>>::_Vector_impl" = type { %"struct.std::_Vector_base<pbrt::Light, std::allocator<pbrt::Light>>::_Vector_impl_data" }
%"struct.std::_Vector_base<pbrt::Light, std::allocator<pbrt::Light>>::_Vector_impl_data" = type { ptr, ptr, ptr }
%"class.pbrt::RayIntegrator" = type { %"class.pbrt::ImageTileIntegrator" }
%"class.pbrt::ImageTileIntegrator" = type { %"class.pbrt::Integrator", %"class.pbrt::Camera", %"class.pbrt::Sampler" }
%"class.pbrt::Integrator" = type { ptr, %"class.pbrt::Primitive", %"class.std::vector", %"class.std::vector" }
%"class.pbrt::SimplePathIntegrator" = type { %"class.pbrt::RayIntegrator", i32, i8, i8, %"class.pbrt::UniformLightSampler" }
%"class.pbrt::UniformLightSampler" = type { %"class.pstd::vector.121" }
%"class.pstd::vector.121" = type { %"class.pstd::pmr::polymorphic_allocator.122", ptr, i64, i64 }
%"class.pstd::pmr::polymorphic_allocator.122" = type { ptr }

@.str.33 = private unnamed_addr constant [70 x i8] c"[ SimplePathIntegrator maxDepth: %d sampleLights: %s sampleBSDF: %s ]\00", align 1

; Function Attrs: mustprogress uwtable
define linkonce_odr dso_local void @_ZN4pbrt12StringPrintfIJRKiRKbS4_EEENSt7__cxx1112basic_stringIcSt11char_traitsIcESaIcEEEPKcDpOT_(ptr noalias sret(%"class.std::__cxx11::basic_string") align 8 %agg.result, ptr noundef %fmt, ptr noundef nonnull align 4 dereferenceable(4) %args, ptr noundef nonnull align 1 dereferenceable(1) %args1, ptr noundef nonnull align 1 dereferenceable(1) %args3) #1 comdat personality ptr @__gxx_personality_v0 {
entry:
  %result.ptr = alloca ptr, align 8
  %fmt.addr = alloca ptr, align 8
  %args.addr = alloca ptr, align 8
  %args.addr2 = alloca ptr, align 8
  %args.addr4 = alloca ptr, align 8
  %nrvo = alloca i1, align 1
  %exn.slot = alloca ptr, align 8
  %ehselector.slot = alloca i32, align 4
  store ptr %agg.result, ptr %result.ptr, align 8
  store ptr %fmt, ptr %fmt.addr, align 8
  store ptr %args, ptr %args.addr, align 8
  store ptr %args1, ptr %args.addr2, align 8
  store ptr %args3, ptr %args.addr4, align 8
  store i1 false, ptr %nrvo, align 1
  call void @_ZNSt7__cxx1112basic_stringIcSt11char_traitsIcESaIcEEC1Ev(ptr noundef nonnull align 8 dereferenceable(32) %agg.result) #14
  %0 = load ptr, ptr %fmt.addr, align 8
  %1 = load ptr, ptr %args.addr, align 8
  %2 = load ptr, ptr %args.addr2, align 8
  %3 = load ptr, ptr %args.addr4, align 8
  invoke void @_ZN4pbrt6detail21stringPrintfRecursiveIRKiJRKbS5_EEEvPNSt7__cxx1112basic_stringIcSt11char_traitsIcESaIcEEEPKcOT_DpOT0_(ptr noundef %agg.result, ptr noundef %0, ptr noundef nonnull align 4 dereferenceable(4) %1, ptr noundef nonnull align 1 dereferenceable(1) %2, ptr noundef nonnull align 1 dereferenceable(1) %3)
          to label %invoke.cont unwind label %lpad

invoke.cont:                                      ; preds = %entry
  store i1 true, ptr %nrvo, align 1
  %nrvo.val = load i1, ptr %nrvo, align 1
  br i1 %nrvo.val, label %nrvo.skipdtor, label %nrvo.unused

lpad:                                             ; preds = %entry
  %4 = landingpad { ptr, i32 }
          cleanup
  %5 = extractvalue { ptr, i32 } %4, 0
  store ptr %5, ptr %exn.slot, align 8
  %6 = extractvalue { ptr, i32 } %4, 1
  store i32 %6, ptr %ehselector.slot, align 4
  call void @_ZNSt7__cxx1112basic_stringIcSt11char_traitsIcESaIcEED1Ev(ptr noundef nonnull align 8 dereferenceable(32) %agg.result) #14
  br label %eh.resume

nrvo.unused:                                      ; preds = %invoke.cont
  call void @_ZNSt7__cxx1112basic_stringIcSt11char_traitsIcESaIcEED1Ev(ptr noundef nonnull align 8 dereferenceable(32) %agg.result) #14
  br label %nrvo.skipdtor

nrvo.skipdtor:                                    ; preds = %nrvo.unused, %invoke.cont
  ret void

eh.resume:                                        ; preds = %lpad
  %exn = load ptr, ptr %exn.slot, align 8
  %sel = load i32, ptr %ehselector.slot, align 4
  %lpad.val = insertvalue { ptr, i32 } poison, ptr %exn, 0
  %lpad.val5 = insertvalue { ptr, i32 } %lpad.val, i32 %sel, 1
  resume { ptr, i32 } %lpad.val5
}

; Function Attrs: mustprogress uwtable
define dso_local void @_ZNK4pbrt20SimplePathIntegrator8ToStringB5cxx11Ev(ptr noalias sret(%"class.std::__cxx11::basic_string") align 8 %agg.result, ptr noundef nonnull align 8 dereferenceable(120) %this) unnamed_addr #1 align 2 {
entry:
  %result.ptr = alloca ptr, align 8
  %this.addr = alloca ptr, align 8
  store ptr %agg.result, ptr %result.ptr, align 8
  store ptr %this, ptr %this.addr, align 8
  %this1 = load ptr, ptr %this.addr, align 8
  %maxDepth = getelementptr inbounds %"class.pbrt::SimplePathIntegrator", ptr %this1, i32 0, i32 1
  %sampleLights = getelementptr inbounds %"class.pbrt::SimplePathIntegrator", ptr %this1, i32 0, i32 2
  %sampleBSDF = getelementptr inbounds %"class.pbrt::SimplePathIntegrator", ptr %this1, i32 0, i32 3
  call void @_ZN4pbrt12StringPrintfIJRKiRKbS4_EEENSt7__cxx1112basic_stringIcSt11char_traitsIcESaIcEEEPKcDpOT_(ptr sret(%"class.std::__cxx11::basic_string") align 8 %agg.result, ptr noundef @.str.33, ptr noundef nonnull align 4 dereferenceable(4) %maxDepth, ptr noundef nonnull align 1 dereferenceable(1) %sampleLights, ptr noundef nonnull align 1 dereferenceable(1) %sampleBSDF)
  ret void
}